target datalayout = "e-m:e-p270:32:32-p271:32:32-p272:64:64-i64:64-i128:128-f80:128-n8:16:32:64-S128"
target triple = "x86_64-pc-linux-gnu"

%struct.strbuf = type { i64, i64, ptr }

@ignore_case = external global i32, align 4
@__const.fnmatch_icase_mem.pat_buf = private unnamed_addr constant %struct.strbuf { i64 0, i64 0, ptr @strbuf_slopbuf }, align 8
@__const.fnmatch_icase_mem.str_buf = private unnamed_addr constant %struct.strbuf { i64 0, i64 0, ptr @strbuf_slopbuf }, align 8

; Function Attrs: nounwind uwtable
define internal i32 @fnmatch_icase_mem(ptr noundef %0, i32 noundef %1, ptr noundef %2, i32 noundef %3, i32 noundef %4) #0 {
  %6 = alloca ptr, align 8
  %7 = alloca i32, align 4
  %8 = alloca ptr, align 8
  %9 = alloca i32, align 4
  %10 = alloca i32, align 4
  %11 = alloca i32, align 4
  %12 = alloca %struct.strbuf, align 8
  %13 = alloca %struct.strbuf, align 8
  %14 = alloca ptr, align 8
  %15 = alloca ptr, align 8
  store ptr %0, ptr %6, align 8, !tbaa !13
  store i32 %1, ptr %7, align 4, !tbaa !16
  store ptr %2, ptr %8, align 8, !tbaa !13
  store i32 %3, ptr %9, align 4, !tbaa !16
  store i32 %4, ptr %10, align 4, !tbaa !16
  call void @llvm.lifetime.start.p0(i64 4, ptr %11) #12
  call void @llvm.lifetime.start.p0(i64 24, ptr %12) #12
  call void @llvm.memcpy.p0.p0.i64(ptr align 8 %12, ptr align 8 @__const.fnmatch_icase_mem.pat_buf, i64 24, i1 false)
  call void @llvm.lifetime.start.p0(i64 24, ptr %13) #12
  call void @llvm.memcpy.p0.p0.i64(ptr align 8 %13, ptr align 8 @__const.fnmatch_icase_mem.str_buf, i64 24, i1 false)
  call void @llvm.lifetime.start.p0(i64 8, ptr %14) #12
  %16 = load ptr, ptr %6, align 8, !tbaa !13
  store ptr %16, ptr %14, align 8, !tbaa !13
  call void @llvm.lifetime.start.p0(i64 8, ptr %15) #12
  %17 = load ptr, ptr %8, align 8, !tbaa !13
  store ptr %17, ptr %15, align 8, !tbaa !13
  %18 = load ptr, ptr %6, align 8, !tbaa !13
  %19 = load i32, ptr %7, align 4, !tbaa !16
  %20 = sext i32 %19 to i64
  %21 = getelementptr inbounds i8, ptr %18, i64 %20
  %22 = load i8, ptr %21, align 1, !tbaa !15
  %23 = icmp ne i8 %22, 0
  br i1 %23, label %24, label %30

24:                                               ; preds = %5
  %25 = load ptr, ptr %6, align 8, !tbaa !13
  %26 = load i32, ptr %7, align 4, !tbaa !16
  %27 = sext i32 %26 to i64
  call void @strbuf_add(ptr noundef %12, ptr noundef %25, i64 noundef %27)
  %28 = getelementptr inbounds nuw %struct.strbuf, ptr %12, i32 0, i32 2
  %29 = load ptr, ptr %28, align 8, !tbaa !119
  store ptr %29, ptr %14, align 8, !tbaa !13
  br label %30

30:                                               ; preds = %24, %5
  %31 = load ptr, ptr %8, align 8, !tbaa !13
  %32 = load i32, ptr %9, align 4, !tbaa !16
  %33 = sext i32 %32 to i64
  %34 = getelementptr inbounds i8, ptr %31, i64 %33
  %35 = load i8, ptr %34, align 1, !tbaa !15
  %36 = icmp ne i8 %35, 0
  br i1 %36, label %37, label %43

37:                                               ; preds = %30
  %38 = load ptr, ptr %8, align 8, !tbaa !13
  %39 = load i32, ptr %9, align 4, !tbaa !16
  %40 = sext i32 %39 to i64
  call void @strbuf_add(ptr noundef %13, ptr noundef %38, i64 noundef %40)
  %41 = getelementptr inbounds nuw %struct.strbuf, ptr %13, i32 0, i32 2
  %42 = load ptr, ptr %41, align 8, !tbaa !119
  store ptr %42, ptr %15, align 8, !tbaa !13
  br label %43

43:                                               ; preds = %37, %30
  %44 = load i32, ptr @ignore_case, align 4, !tbaa !16
  %45 = icmp ne i32 %44, 0
  br i1 %45, label %46, label %49

46:                                               ; preds = %43
  %47 = load i32, ptr %10, align 4, !tbaa !16
  %48 = or i32 %47, 1
  store i32 %48, ptr %10, align 4, !tbaa !16
  br label %49

49:                                               ; preds = %46, %43
  %50 = load ptr, ptr %14, align 8, !tbaa !13
  %51 = load ptr, ptr %15, align 8, !tbaa !13
  %52 = load i32, ptr %10, align 4, !tbaa !16
  %53 = call i32 @wildmatch(ptr noundef %50, ptr noundef %51, i32 noundef %52)
  store i32 %53, ptr %11, align 4, !tbaa !16
  call void @strbuf_release(ptr noundef %12)
  call void @strbuf_release(ptr noundef %13)
  %54 = load i32, ptr %11, align 4, !tbaa !16
  call void @llvm.lifetime.end.p0(i64 8, ptr %15) #12
  call void @llvm.lifetime.end.p0(i64 8, ptr %14) #12
  call void @llvm.lifetime.end.p0(i64 24, ptr %13) #12
  call void @llvm.lifetime.end.p0(i64 24, ptr %12) #12
  call void @llvm.lifetime.end.p0(i64 4, ptr %11) #12
  ret i32 %54
}

; Function Attrs: nounwind uwtable
define dso_local i32 @git_fspathncmp(ptr noundef %0, ptr noundef %1, i64 noundef %2) #0 {
  %4 = alloca ptr, align 8
  %5 = alloca ptr, align 8
  %6 = alloca i64, align 8
  store ptr %0, ptr %4, align 8, !tbaa !13
  store ptr %1, ptr %5, align 8, !tbaa !13
  store i64 %2, ptr %6, align 8, !tbaa !19
  %7 = load i32, ptr @ignore_case, align 4, !tbaa !16
  %8 = icmp ne i32 %7, 0
  br i1 %8, label %9, label %14

9:                                                ; preds = %3
  %10 = load ptr, ptr %4, align 8, !tbaa !13
  %11 = load ptr, ptr %5, align 8, !tbaa !13
  %12 = load i64, ptr %6, align 8, !tbaa !19
  %13 = call i32 @strncasecmp(ptr noundef %10, ptr noundef %11, i64 noundef %12) #13
  br label %19

14:                                               ; preds = %3
  %15 = load ptr, ptr %4, align 8, !tbaa !13
  %16 = load ptr, ptr %5, align 8, !tbaa !13
  %17 = load i64, ptr %6, align 8, !tbaa !19
  %18 = call i32 @strncmp(ptr noundef %15, ptr noundef %16, i64 noundef %17) #13
  br label %19

19:                                               ; preds = %14, %9
  %20 = phi i32 [ %13, %9 ], [ %18, %14 ]
  ret i32 %20
}

; Function Attrs: nounwind uwtable
define dso_local i32 @match_pathname(ptr noundef %0, i32 noundef %1, ptr noundef %2, i32 noundef %3, ptr noundef %4, i32 noundef %5, i32 noundef %6) #0 {
  %8 = alloca i32, align 4
  %9 = alloca ptr, align 8
  %10 = alloca i32, align 4
  %11 = alloca ptr, align 8
  %12 = alloca i32, align 4
  %13 = alloca ptr, align 8
  %14 = alloca i32, align 4
  %15 = alloca i32, align 4
  %16 = alloca ptr, align 8
  %17 = alloca i32, align 4
  %18 = alloca i32, align 4
  store ptr %0, ptr %9, align 8, !tbaa !13
  store i32 %1, ptr %10, align 4, !tbaa !16
  store ptr %2, ptr %11, align 8, !tbaa !13
  store i32 %3, ptr %12, align 4, !tbaa !16
  store ptr %4, ptr %13, align 8, !tbaa !13
  store i32 %5, ptr %14, align 4, !tbaa !16
  store i32 %6, ptr %15, align 4, !tbaa !16
  call void @llvm.lifetime.start.p0(i64 8, ptr %16) #12
  call void @llvm.lifetime.start.p0(i64 4, ptr %17) #12
  %19 = load ptr, ptr %13, align 8, !tbaa !13
  %20 = load i8, ptr %19, align 1, !tbaa !15
  %21 = sext i8 %20 to i32
  %22 = icmp eq i32 %21, 47
  br i1 %22, label %23, label %30

23:                                               ; preds = %7
  %24 = load ptr, ptr %13, align 8, !tbaa !13
  %25 = getelementptr inbounds nuw i8, ptr %24, i32 1
  store ptr %25, ptr %13, align 8, !tbaa !13
  %26 = load i32, ptr %15, align 4, !tbaa !16
  %27 = add nsw i32 %26, -1
  store i32 %27, ptr %15, align 4, !tbaa !16
  %28 = load i32, ptr %14, align 4, !tbaa !16
  %29 = add nsw i32 %28, -1
  store i32 %29, ptr %14, align 4, !tbaa !16
  br label %30

30:                                               ; preds = %23, %7
  %31 = load i32, ptr %10, align 4, !tbaa !16
  %32 = load i32, ptr %12, align 4, !tbaa !16
  %33 = add nsw i32 %32, 1
  %34 = icmp slt i32 %31, %33
  br i1 %34, label %53, label %35

35:                                               ; preds = %30
  %36 = load i32, ptr %12, align 4, !tbaa !16
  %37 = icmp ne i32 %36, 0
  br i1 %37, label %38, label %46

38:                                               ; preds = %35
  %39 = load ptr, ptr %9, align 8, !tbaa !13
  %40 = load i32, ptr %12, align 4, !tbaa !16
  %41 = sext i32 %40 to i64
  %42 = getelementptr inbounds i8, ptr %39, i64 %41
  %43 = load i8, ptr %42, align 1, !tbaa !15
  %44 = sext i8 %43 to i32
  %45 = icmp ne i32 %44, 47
  br i1 %45, label %53, label %46

46:                                               ; preds = %38, %35
  %47 = load ptr, ptr %9, align 8, !tbaa !13
  %48 = load ptr, ptr %11, align 8, !tbaa !13
  %49 = load i32, ptr %12, align 4, !tbaa !16
  %50 = sext i32 %49 to i64
  %51 = call i32 @git_fspathncmp(ptr noundef %47, ptr noundef %48, i64 noundef %50)
  %52 = icmp ne i32 %51, 0
  br i1 %52, label %53, label %54

53:                                               ; preds = %46, %38, %30
  store i32 0, ptr %8, align 4
  store i32 1, ptr %18, align 4
  br label %119

54:                                               ; preds = %46
  %55 = load i32, ptr %12, align 4, !tbaa !16
  %56 = icmp ne i32 %55, 0
  br i1 %56, label %57, label %62

57:                                               ; preds = %54
  %58 = load i32, ptr %10, align 4, !tbaa !16
  %59 = load i32, ptr %12, align 4, !tbaa !16
  %60 = sub nsw i32 %58, %59
  %61 = sub nsw i32 %60, 1
  br label %64

62:                                               ; preds = %54
  %63 = load i32, ptr %10, align 4, !tbaa !16
  br label %64

64:                                               ; preds = %62, %57
  %65 = phi i32 [ %61, %57 ], [ %63, %62 ]
  store i32 %65, ptr %17, align 4, !tbaa !16
  %66 = load ptr, ptr %9, align 8, !tbaa !13
  %67 = load i32, ptr %10, align 4, !tbaa !16
  %68 = sext i32 %67 to i64
  %69 = getelementptr inbounds i8, ptr %66, i64 %68
  %70 = load i32, ptr %17, align 4, !tbaa !16
  %71 = sext i32 %70 to i64
  %72 = sub i64 0, %71
  %73 = getelementptr inbounds i8, ptr %69, i64 %72
  store ptr %73, ptr %16, align 8, !tbaa !13
  %74 = load i32, ptr %14, align 4, !tbaa !16
  %75 = icmp ne i32 %74, 0
  br i1 %75, label %76, label %111

76:                                               ; preds = %64
  %77 = load i32, ptr %14, align 4, !tbaa !16
  %78 = load i32, ptr %17, align 4, !tbaa !16
  %79 = icmp sgt i32 %77, %78
  br i1 %79, label %80, label %81

80:                                               ; preds = %76
  store i32 0, ptr %8, align 4
  store i32 1, ptr %18, align 4
  br label %119

81:                                               ; preds = %76
  %82 = load ptr, ptr %13, align 8, !tbaa !13
  %83 = load ptr, ptr %16, align 8, !tbaa !13
  %84 = load i32, ptr %14, align 4, !tbaa !16
  %85 = sext i32 %84 to i64
  %86 = call i32 @git_fspathncmp(ptr noundef %82, ptr noundef %83, i64 noundef %85)
  %87 = icmp ne i32 %86, 0
  br i1 %87, label %88, label %89

88:                                               ; preds = %81
  store i32 0, ptr %8, align 4
  store i32 1, ptr %18, align 4
  br label %119

89:                                               ; preds = %81
  %90 = load i32, ptr %14, align 4, !tbaa !16
  %91 = load ptr, ptr %13, align 8, !tbaa !13
  %92 = sext i32 %90 to i64
  %93 = getelementptr inbounds i8, ptr %91, i64 %92
  store ptr %93, ptr %13, align 8, !tbaa !13
  %94 = load i32, ptr %14, align 4, !tbaa !16
  %95 = load i32, ptr %15, align 4, !tbaa !16
  %96 = sub nsw i32 %95, %94
  store i32 %96, ptr %15, align 4, !tbaa !16
  %97 = load i32, ptr %14, align 4, !tbaa !16
  %98 = load ptr, ptr %16, align 8, !tbaa !13
  %99 = sext i32 %97 to i64
  %100 = getelementptr inbounds i8, ptr %98, i64 %99
  store ptr %100, ptr %16, align 8, !tbaa !13
  %101 = load i32, ptr %14, align 4, !tbaa !16
  %102 = load i32, ptr %17, align 4, !tbaa !16
  %103 = sub nsw i32 %102, %101
  store i32 %103, ptr %17, align 4, !tbaa !16
  %104 = load i32, ptr %15, align 4, !tbaa !16
  %105 = icmp ne i32 %104, 0
  br i1 %105, label %110, label %106

106:                                              ; preds = %89
  %107 = load i32, ptr %17, align 4, !tbaa !16
  %108 = icmp ne i32 %107, 0
  br i1 %108, label %110, label %109

109:                                              ; preds = %106
  store i32 1, ptr %8, align 4
  store i32 1, ptr %18, align 4
  br label %119

110:                                              ; preds = %106, %89
  br label %111

111:                                              ; preds = %110, %64
  %112 = load ptr, ptr %13, align 8, !tbaa !13
  %113 = load i32, ptr %15, align 4, !tbaa !16
  %114 = load ptr, ptr %16, align 8, !tbaa !13
  %115 = load i32, ptr %17, align 4, !tbaa !16
  %116 = call i32 @fnmatch_icase_mem(ptr noundef %112, i32 noundef %113, ptr noundef %114, i32 noundef %115, i32 noundef 2)
  %117 = icmp eq i32 %116, 0
  %118 = zext i1 %117 to i32
  store i32 %118, ptr %8, align 4
  store i32 1, ptr %18, align 4
  br label %119

119:                                              ; preds = %111, %109, %88, %80, %53
  call void @llvm.lifetime.end.p0(i64 4, ptr %17) #12
  call void @llvm.lifetime.end.p0(i64 8, ptr %16) #12
  %120 = load i32, ptr %8, align 4
  ret i32 %120
}