; Function Attrs: nounwind uwtable
define dso_local range(i32 0, 2) i32 @match_pathname(ptr noundef %0, i32 noundef %1, ptr noundef readonly captures(none) %2, i32 noundef %3, ptr noundef %4, i32 noundef %5, i32 noundef %6) local_unnamed_addr #0 {
  %8 = alloca %struct.strbuf, align 8
  %9 = alloca %struct.strbuf, align 8
  %10 = load i8, ptr %4, align 1, !tbaa !4
  %11 = icmp eq i8 %10, 47
  %.043.idx = zext i1 %11 to i64
  %.043 = getelementptr inbounds nuw i8, ptr %4, i64 %.043.idx
  %12 = sext i1 %11 to i32
  %.042 = add nsw i32 %5, %12
  %.041 = add nsw i32 %6, %12
  %.not = icmp sgt i32 %1, %3
  br i1 %.not, label %13, label %68

13:                                               ; preds = %7
  %.not50 = icmp eq i32 %3, 0
  br i1 %.not50, label %._crit_edge, label %14

14:                                               ; preds = %13
  %15 = sext i32 %3 to i64
  %16 = getelementptr inbounds i8, ptr %0, i64 %15
  %17 = load i8, ptr %16, align 1, !tbaa !4
  %.not51 = icmp eq i8 %17, 47
  br i1 %.not51, label %._crit_edge, label %68

._crit_edge:                                      ; preds = %13, %14
  %.pre-phi = phi i64 [ %15, %14 ], [ 0, %13 ]
  %18 = load i32, ptr @ignore_case, align 4, !tbaa !10
  %.not.i = icmp eq i32 %18, 0
  br i1 %.not.i, label %21, label %19

19:                                               ; preds = %._crit_edge
  %20 = tail call i32 @strncasecmp(ptr noundef readonly %0, ptr noundef readonly %2, i64 noundef %.pre-phi) #28
  br label %git_fspathncmp.exit

21:                                               ; preds = %._crit_edge
  %22 = tail call i32 @strncmp(ptr noundef readonly %0, ptr noundef readonly %2, i64 noundef %.pre-phi) #28
  br label %git_fspathncmp.exit

git_fspathncmp.exit:                              ; preds = %19, %21
  %23 = phi i32 [ %20, %19 ], [ %22, %21 ]
  %.not52 = icmp eq i32 %23, 0
  br i1 %.not52, label %24, label %68

24:                                               ; preds = %git_fspathncmp.exit
  %25 = xor i32 %3, -1
  %26 = select i1 %.not50, i32 0, i32 %25
  %27 = add i32 %26, %1
  %28 = sext i32 %1 to i64
  %29 = getelementptr inbounds i8, ptr %0, i64 %28
  %30 = sext i32 %27 to i64
  %31 = sub nsw i64 0, %30
  %32 = getelementptr inbounds i8, ptr %29, i64 %31
  %.not53 = icmp eq i32 %.042, 0
  br i1 %.not53, label %49, label %33

33:                                               ; preds = %24
  %34 = icmp sgt i32 %.042, %27
  br i1 %34, label %68, label %35

35:                                               ; preds = %33
  %36 = sext i32 %.042 to i64
  br i1 %.not.i, label %39, label %37

37:                                               ; preds = %35
  %38 = tail call i32 @strncasecmp(ptr noundef nonnull readonly %.043, ptr noundef readonly %32, i64 noundef %36) #28
  br label %git_fspathncmp.exit56

39:                                               ; preds = %35
  %40 = tail call i32 @strncmp(ptr noundef nonnull readonly %.043, ptr noundef readonly %32, i64 noundef %36) #28
  br label %git_fspathncmp.exit56

git_fspathncmp.exit56:                            ; preds = %37, %39
  %41 = phi i32 [ %38, %37 ], [ %40, %39 ]
  %.not54 = icmp eq i32 %41, 0
  br i1 %.not54, label %42, label %68

42:                                               ; preds = %git_fspathncmp.exit56
  %43 = getelementptr inbounds i8, ptr %.043, i64 %36
  %44 = sub i32 %6, %5
  %45 = getelementptr inbounds i8, ptr %32, i64 %36
  %46 = sub nsw i32 %27, %.042
  %47 = icmp ne i32 %44, 0
  %48 = icmp ne i32 %46, 0
  %or.cond = select i1 %47, i1 true, i1 %48
  br i1 %or.cond, label %49, label %68

49:                                               ; preds = %42, %24
  %.144 = phi ptr [ %43, %42 ], [ %.043, %24 ]
  %.1 = phi i32 [ %44, %42 ], [ %.041, %24 ]
  %.040 = phi ptr [ %45, %42 ], [ %32, %24 ]
  %.0 = phi i32 [ %46, %42 ], [ %27, %24 ]
  call void @llvm.lifetime.start.p0(i64 24, ptr nonnull %8) #27
  call void @llvm.memcpy.p0.p0.i64(ptr noundef nonnull align 8 dereferenceable(24) %8, ptr noundef nonnull align 8 dereferenceable(24) @__const.connect_wt_gitdir_in_nested.sub_gd, i64 24, i1 false)
  call void @llvm.lifetime.start.p0(i64 24, ptr nonnull %9) #27
  call void @llvm.memcpy.p0.p0.i64(ptr noundef nonnull align 8 dereferenceable(24) %9, ptr noundef nonnull align 8 dereferenceable(24) @__const.connect_wt_gitdir_in_nested.sub_gd, i64 24, i1 false)
  %50 = sext i32 %.1 to i64
  %51 = getelementptr inbounds i8, ptr %.144, i64 %50
  %52 = load i8, ptr %51, align 1, !tbaa !4
  %.not.i57 = icmp eq i8 %52, 0
  br i1 %.not.i57, label %56, label %53

53:                                               ; preds = %49
  call void @strbuf_add(ptr noundef nonnull %8, ptr noundef nonnull %.144, i64 noundef %50) #27
  %54 = getelementptr inbounds nuw i8, ptr %8, i64 16
  %55 = load ptr, ptr %54, align 8, !tbaa !74
  br label %56

56:                                               ; preds = %53, %49
  %.014.i = phi ptr [ %55, %53 ], [ %.144, %49 ]
  %57 = sext i32 %.0 to i64
  %58 = getelementptr inbounds i8, ptr %.040, i64 %57
  %59 = load i8, ptr %58, align 1, !tbaa !4
  %.not16.i = icmp eq i8 %59, 0
  br i1 %.not16.i, label %fnmatch_icase_mem.exit, label %60

60:                                               ; preds = %56
  call void @strbuf_add(ptr noundef nonnull %9, ptr noundef nonnull %.040, i64 noundef %57) #27
  %61 = getelementptr inbounds nuw i8, ptr %9, i64 16
  %62 = load ptr, ptr %61, align 8, !tbaa !74
  br label %fnmatch_icase_mem.exit

fnmatch_icase_mem.exit:                           ; preds = %56, %60
  %.0.i = phi ptr [ %62, %60 ], [ %.040, %56 ]
  %63 = load i32, ptr @ignore_case, align 4, !tbaa !10
  %.not17.i = icmp ne i32 %63, 0
  %64 = zext i1 %.not17.i to i32
  %spec.select.i = or disjoint i32 %64, 2
  %65 = call i32 @wildmatch(ptr noundef %.014.i, ptr noundef %.0.i, i32 noundef %spec.select.i) #27
  call void @strbuf_release(ptr noundef nonnull %8) #27
  call void @strbuf_release(ptr noundef nonnull %9) #27
  call void @llvm.lifetime.end.p0(i64 24, ptr nonnull %9) #27
  call void @llvm.lifetime.end.p0(i64 24, ptr nonnull %8) #27
  %66 = icmp eq i32 %65, 0
  %67 = zext i1 %66 to i32
  br label %68

68:                                               ; preds = %42, %git_fspathncmp.exit56, %33, %7, %14, %git_fspathncmp.exit, %fnmatch_icase_mem.exit
  %.045 = phi i32 [ %67, %fnmatch_icase_mem.exit ], [ 0, %git_fspathncmp.exit ], [ 0, %14 ], [ 0, %7 ], [ 0, %33 ], [ 0, %git_fspathncmp.exit56 ], [ 1, %42 ]
  ret i32 %.045
}